target datalayout = "e-m:e-p270:32:32-p271:32:32-p272:64:64-i64:64-i128:128-f80:128-n8:16:32:64-S128"
target triple = "x86_64-pc-linux-gnu"

%struct.evp_test_st = type { %struct.stanza_st, ptr, i32, ptr, ptr, ptr, ptr, ptr, ptr, i32 }
%struct.stanza_st = type { ptr, ptr, i32, i32, i32, i32, i32, i32, [150 x %struct.pair_st], ptr, [32768 x i8] }
%struct.pair_st = type { ptr, ptr }
%struct.rand_data_st = type { ptr, ptr, i32, i32, i32, i32, ptr, ptr, ptr, [15 x %struct.rand_data_pass_st] }
%struct.rand_data_pass_st = type { ptr, ptr, ptr, ptr, ptr, ptr, ptr, ptr, ptr, ptr, i64, i64, i64, i64, i64, i64, i64, i64, i64, i64 }

@.str.29 = private unnamed_addr constant [27 x i8] c"../openssl/test/evp_test.c\00", align 1

; Function Attrs: inlinehint nounwind uwtable
define internal ptr @ossl_check_OPENSSL_STRING_freefunc_type(ptr noundef %0) #5 {
  %2 = alloca ptr, align 8
  store ptr %0, ptr %2, align 8, !tbaa !97
  %3 = load ptr, ptr %2, align 8, !tbaa !97
  ret ptr %3
}

; Function Attrs: inlinehint nounwind uwtable
define internal ptr @ossl_check_OPENSSL_STRING_sk_type(ptr noundef %0) #5 {
  %2 = alloca ptr, align 8
  store ptr %0, ptr %2, align 8, !tbaa !131
  %3 = load ptr, ptr %2, align 8, !tbaa !131
  ret ptr %3
}

; Function Attrs: nounwind uwtable
define internal void @ctrlfree(ptr noundef %0) #0 {
  %2 = alloca ptr, align 8
  store ptr %0, ptr %2, align 8, !tbaa !131
  %3 = load ptr, ptr %2, align 8, !tbaa !131
  %4 = call ptr @ossl_check_OPENSSL_STRING_sk_type(ptr noundef %3)
  %5 = call ptr @ossl_check_OPENSSL_STRING_freefunc_type(ptr noundef @openssl_free)
  call void @OPENSSL_sk_pop_free(ptr noundef %4, ptr noundef %5)
  ret void
}

; Function Attrs: nounwind uwtable
define internal void @rand_test_cleanup(ptr noundef %0) #0 {
  %2 = alloca ptr, align 8
  %3 = alloca ptr, align 8
  %4 = alloca i32, align 4
  store ptr %0, ptr %2, align 8, !tbaa !15
  call void @llvm.lifetime.start.p0(i64 8, ptr %3) #10
  %5 = load ptr, ptr %2, align 8, !tbaa !15
  %6 = getelementptr inbounds nuw %struct.evp_test_st, ptr %5, i32 0, i32 8
  %7 = load ptr, ptr %6, align 8, !tbaa !66
  store ptr %7, ptr %3, align 8, !tbaa !88
  call void @llvm.lifetime.start.p0(i64 4, ptr %4) #10
  %8 = load ptr, ptr %3, align 8, !tbaa !88
  %9 = getelementptr inbounds nuw %struct.rand_data_st, ptr %8, i32 0, i32 8
  %10 = load ptr, ptr %9, align 8, !tbaa !99
  call void @ctrlfree(ptr noundef %10)
  %11 = load ptr, ptr %3, align 8, !tbaa !88
  %12 = getelementptr inbounds nuw %struct.rand_data_st, ptr %11, i32 0, i32 6
  %13 = load ptr, ptr %12, align 8, !tbaa !101
  call void @CRYPTO_free(ptr noundef %13, ptr noundef @.str.29, i32 noundef 3473)
  %14 = load ptr, ptr %3, align 8, !tbaa !88
  %15 = getelementptr inbounds nuw %struct.rand_data_st, ptr %14, i32 0, i32 7
  %16 = load ptr, ptr %15, align 8, !tbaa !102
  call void @CRYPTO_free(ptr noundef %16, ptr noundef @.str.29, i32 noundef 3474)
  store i32 0, ptr %4, align 4, !tbaa !9
  br label %17

17:                                               ; preds = %94, %1
  %18 = load i32, ptr %4, align 4, !tbaa !9
  %19 = load ptr, ptr %3, align 8, !tbaa !88
  %20 = getelementptr inbounds nuw %struct.rand_data_st, ptr %19, i32 0, i32 2
  %21 = load i32, ptr %20, align 8, !tbaa !100
  %22 = icmp sle i32 %18, %21
  br i1 %22, label %23, label %97

23:                                               ; preds = %17
  %24 = load ptr, ptr %3, align 8, !tbaa !88
  %25 = getelementptr inbounds nuw %struct.rand_data_st, ptr %24, i32 0, i32 9
  %26 = load i32, ptr %4, align 4, !tbaa !9
  %27 = sext i32 %26 to i64
  %28 = getelementptr inbounds [15 x %struct.rand_data_pass_st], ptr %25, i64 0, i64 %27
  %29 = getelementptr inbounds nuw %struct.rand_data_pass_st, ptr %28, i32 0, i32 0
  %30 = load ptr, ptr %29, align 8, !tbaa !103
  call void @CRYPTO_free(ptr noundef %30, ptr noundef @.str.29, i32 noundef 3477)
  %31 = load ptr, ptr %3, align 8, !tbaa !88
  %32 = getelementptr inbounds nuw %struct.rand_data_st, ptr %31, i32 0, i32 9
  %33 = load i32, ptr %4, align 4, !tbaa !9
  %34 = sext i32 %33 to i64
  %35 = getelementptr inbounds [15 x %struct.rand_data_pass_st], ptr %32, i64 0, i64 %34
  %36 = getelementptr inbounds nuw %struct.rand_data_pass_st, ptr %35, i32 0, i32 1
  %37 = load ptr, ptr %36, align 8, !tbaa !105
  call void @CRYPTO_free(ptr noundef %37, ptr noundef @.str.29, i32 noundef 3478)
  %38 = load ptr, ptr %3, align 8, !tbaa !88
  %39 = getelementptr inbounds nuw %struct.rand_data_st, ptr %38, i32 0, i32 9
  %40 = load i32, ptr %4, align 4, !tbaa !9
  %41 = sext i32 %40 to i64
  %42 = getelementptr inbounds [15 x %struct.rand_data_pass_st], ptr %39, i64 0, i64 %41
  %43 = getelementptr inbounds nuw %struct.rand_data_pass_st, ptr %42, i32 0, i32 2
  %44 = load ptr, ptr %43, align 8, !tbaa !106
  call void @CRYPTO_free(ptr noundef %44, ptr noundef @.str.29, i32 noundef 3479)
  %45 = load ptr, ptr %3, align 8, !tbaa !88
  %46 = getelementptr inbounds nuw %struct.rand_data_st, ptr %45, i32 0, i32 9
  %47 = load i32, ptr %4, align 4, !tbaa !9
  %48 = sext i32 %47 to i64
  %49 = getelementptr inbounds [15 x %struct.rand_data_pass_st], ptr %46, i64 0, i64 %48
  %50 = getelementptr inbounds nuw %struct.rand_data_pass_st, ptr %49, i32 0, i32 3
  %51 = load ptr, ptr %50, align 8, !tbaa !107
  call void @CRYPTO_free(ptr noundef %51, ptr noundef @.str.29, i32 noundef 3480)
  %52 = load ptr, ptr %3, align 8, !tbaa !88
  %53 = getelementptr inbounds nuw %struct.rand_data_st, ptr %52, i32 0, i32 9
  %54 = load i32, ptr %4, align 4, !tbaa !9
  %55 = sext i32 %54 to i64
  %56 = getelementptr inbounds [15 x %struct.rand_data_pass_st], ptr %53, i64 0, i64 %55
  %57 = getelementptr inbounds nuw %struct.rand_data_pass_st, ptr %56, i32 0, i32 4
  %58 = load ptr, ptr %57, align 8, !tbaa !108
  call void @CRYPTO_free(ptr noundef %58, ptr noundef @.str.29, i32 noundef 3481)
  %59 = load ptr, ptr %3, align 8, !tbaa !88
  %60 = getelementptr inbounds nuw %struct.rand_data_st, ptr %59, i32 0, i32 9
  %61 = load i32, ptr %4, align 4, !tbaa !9
  %62 = sext i32 %61 to i64
  %63 = getelementptr inbounds [15 x %struct.rand_data_pass_st], ptr %60, i64 0, i64 %62
  %64 = getelementptr inbounds nuw %struct.rand_data_pass_st, ptr %63, i32 0, i32 5
  %65 = load ptr, ptr %64, align 8, !tbaa !109
  call void @CRYPTO_free(ptr noundef %65, ptr noundef @.str.29, i32 noundef 3482)
  %66 = load ptr, ptr %3, align 8, !tbaa !88
  %67 = getelementptr inbounds nuw %struct.rand_data_st, ptr %66, i32 0, i32 9
  %68 = load i32, ptr %4, align 4, !tbaa !9
  %69 = sext i32 %68 to i64
  %70 = getelementptr inbounds [15 x %struct.rand_data_pass_st], ptr %67, i64 0, i64 %69
  %71 = getelementptr inbounds nuw %struct.rand_data_pass_st, ptr %70, i32 0, i32 6
  %72 = load ptr, ptr %71, align 8, !tbaa !110
  call void @CRYPTO_free(ptr noundef %72, ptr noundef @.str.29, i32 noundef 3483)
  %73 = load ptr, ptr %3, align 8, !tbaa !88
  %74 = getelementptr inbounds nuw %struct.rand_data_st, ptr %73, i32 0, i32 9
  %75 = load i32, ptr %4, align 4, !tbaa !9
  %76 = sext i32 %75 to i64
  %77 = getelementptr inbounds [15 x %struct.rand_data_pass_st], ptr %74, i64 0, i64 %76
  %78 = getelementptr inbounds nuw %struct.rand_data_pass_st, ptr %77, i32 0, i32 7
  %79 = load ptr, ptr %78, align 8, !tbaa !111
  call void @CRYPTO_free(ptr noundef %79, ptr noundef @.str.29, i32 noundef 3484)
  %80 = load ptr, ptr %3, align 8, !tbaa !88
  %81 = getelementptr inbounds nuw %struct.rand_data_st, ptr %80, i32 0, i32 9
  %82 = load i32, ptr %4, align 4, !tbaa !9
  %83 = sext i32 %82 to i64
  %84 = getelementptr inbounds [15 x %struct.rand_data_pass_st], ptr %81, i64 0, i64 %83
  %85 = getelementptr inbounds nuw %struct.rand_data_pass_st, ptr %84, i32 0, i32 8
  %86 = load ptr, ptr %85, align 8, !tbaa !112
  call void @CRYPTO_free(ptr noundef %86, ptr noundef @.str.29, i32 noundef 3485)
  %87 = load ptr, ptr %3, align 8, !tbaa !88
  %88 = getelementptr inbounds nuw %struct.rand_data_st, ptr %87, i32 0, i32 9
  %89 = load i32, ptr %4, align 4, !tbaa !9
  %90 = sext i32 %89 to i64
  %91 = getelementptr inbounds [15 x %struct.rand_data_pass_st], ptr %88, i64 0, i64 %90
  %92 = getelementptr inbounds nuw %struct.rand_data_pass_st, ptr %91, i32 0, i32 9
  %93 = load ptr, ptr %92, align 8, !tbaa !113
  call void @CRYPTO_free(ptr noundef %93, ptr noundef @.str.29, i32 noundef 3486)
  br label %94

94:                                               ; preds = %23
  %95 = load i32, ptr %4, align 4, !tbaa !9
  %96 = add nsw i32 %95, 1
  store i32 %96, ptr %4, align 4, !tbaa !9
  br label %17, !llvm.loop !114

97:                                               ; preds = %17
  %98 = load ptr, ptr %3, align 8, !tbaa !88
  %99 = getelementptr inbounds nuw %struct.rand_data_st, ptr %98, i32 0, i32 0
  %100 = load ptr, ptr %99, align 8, !tbaa !98
  call void @EVP_RAND_CTX_free(ptr noundef %100)
  %101 = load ptr, ptr %3, align 8, !tbaa !88
  %102 = getelementptr inbounds nuw %struct.rand_data_st, ptr %101, i32 0, i32 1
  %103 = load ptr, ptr %102, align 8, !tbaa !92
  call void @EVP_RAND_CTX_free(ptr noundef %103)
  call void @llvm.lifetime.end.p0(i64 4, ptr %4) #10
  call void @llvm.lifetime.end.p0(i64 8, ptr %3) #10
  ret void
}