; Function Attrs: nounwind uwtable
define internal void @rand_test_cleanup(ptr noundef readonly captures(none) %0) #1 {
  %2 = getelementptr inbounds nuw i8, ptr %0, i64 35272
  %3 = load ptr, ptr %2, align 8, !tbaa !20
  %4 = getelementptr inbounds nuw i8, ptr %3, i64 48
  %5 = load ptr, ptr %4, align 8, !tbaa !77
  tail call void @OPENSSL_sk_pop_free(ptr noundef %5, ptr noundef nonnull @openssl_free) #10
  %6 = getelementptr inbounds nuw i8, ptr %3, i64 32
  %7 = load ptr, ptr %6, align 8, !tbaa !79
  tail call void @CRYPTO_free(ptr noundef %7, ptr noundef nonnull @.str.29, i32 noundef 3473) #10
  %8 = getelementptr inbounds nuw i8, ptr %3, i64 40
  %9 = load ptr, ptr %8, align 8, !tbaa !80
  tail call void @CRYPTO_free(ptr noundef %9, ptr noundef nonnull @.str.29, i32 noundef 3474) #10
  %10 = getelementptr inbounds nuw i8, ptr %3, i64 16
  %11 = load i32, ptr %10, align 8, !tbaa !78
  %.not28 = icmp slt i32 %11, 0
  br i1 %.not28, label %._crit_edge, label %.lr.ph

.lr.ph:                                           ; preds = %1
  %12 = getelementptr inbounds nuw i8, ptr %3, i64 56
  br label %13

13:                                               ; preds = %.lr.ph, %13
  %indvars.iv = phi i64 [ 0, %.lr.ph ], [ %indvars.iv.next, %13 ]
  %14 = getelementptr inbounds nuw [15 x %struct.rand_data_pass_st], ptr %12, i64 0, i64 %indvars.iv
  %15 = load ptr, ptr %14, align 8, !tbaa !81
  tail call void @CRYPTO_free(ptr noundef %15, ptr noundef nonnull @.str.29, i32 noundef 3477) #10
  %16 = getelementptr inbounds nuw i8, ptr %14, i64 8
  %17 = load ptr, ptr %16, align 8, !tbaa !83
  tail call void @CRYPTO_free(ptr noundef %17, ptr noundef nonnull @.str.29, i32 noundef 3478) #10
  %18 = getelementptr inbounds nuw i8, ptr %14, i64 16
  %19 = load ptr, ptr %18, align 8, !tbaa !84
  tail call void @CRYPTO_free(ptr noundef %19, ptr noundef nonnull @.str.29, i32 noundef 3479) #10
  %20 = getelementptr inbounds nuw i8, ptr %14, i64 24
  %21 = load ptr, ptr %20, align 8, !tbaa !85
  tail call void @CRYPTO_free(ptr noundef %21, ptr noundef nonnull @.str.29, i32 noundef 3480) #10
  %22 = getelementptr inbounds nuw i8, ptr %14, i64 32
  %23 = load ptr, ptr %22, align 8, !tbaa !86
  tail call void @CRYPTO_free(ptr noundef %23, ptr noundef nonnull @.str.29, i32 noundef 3481) #10
  %24 = getelementptr inbounds nuw i8, ptr %14, i64 40
  %25 = load ptr, ptr %24, align 8, !tbaa !87
  tail call void @CRYPTO_free(ptr noundef %25, ptr noundef nonnull @.str.29, i32 noundef 3482) #10
  %26 = getelementptr inbounds nuw i8, ptr %14, i64 48
  %27 = load ptr, ptr %26, align 8, !tbaa !88
  tail call void @CRYPTO_free(ptr noundef %27, ptr noundef nonnull @.str.29, i32 noundef 3483) #10
  %28 = getelementptr inbounds nuw i8, ptr %14, i64 56
  %29 = load ptr, ptr %28, align 8, !tbaa !89
  tail call void @CRYPTO_free(ptr noundef %29, ptr noundef nonnull @.str.29, i32 noundef 3484) #10
  %30 = getelementptr inbounds nuw i8, ptr %14, i64 64
  %31 = load ptr, ptr %30, align 8, !tbaa !90
  tail call void @CRYPTO_free(ptr noundef %31, ptr noundef nonnull @.str.29, i32 noundef 3485) #10
  %32 = getelementptr inbounds nuw i8, ptr %14, i64 72
  %33 = load ptr, ptr %32, align 8, !tbaa !91
  tail call void @CRYPTO_free(ptr noundef %33, ptr noundef nonnull @.str.29, i32 noundef 3486) #10
  %indvars.iv.next = add nuw nsw i64 %indvars.iv, 1
  %34 = load i32, ptr %10, align 8, !tbaa !78
  %35 = sext i32 %34 to i64
  %.not.not = icmp slt i64 %indvars.iv, %35
  br i1 %.not.not, label %13, label %._crit_edge, !llvm.loop !92

._crit_edge:                                      ; preds = %13, %1
  %36 = load ptr, ptr %3, align 8, !tbaa !76
  tail call void @EVP_RAND_CTX_free(ptr noundef %36) #10
  %37 = getelementptr inbounds nuw i8, ptr %3, i64 8
  %38 = load ptr, ptr %37, align 8, !tbaa !72
  tail call void @EVP_RAND_CTX_free(ptr noundef %38) #10
  ret void
}